
_main:

;InterruptEgUART.c,2 :: 		void main() {
;InterruptEgUART.c,3 :: 		TRISB=0x00;
	CLRF        TRISB+0 
;InterruptEgUART.c,4 :: 		UART1_Init(9600);
	BSF         BAUDCON+0, 3, 0
	MOVLW       2
	MOVWF       SPBRGH+0 
	MOVLW       8
	MOVWF       SPBRG+0 
	BSF         TXSTA+0, 2, 0
	CALL        _UART1_Init+0, 0
;InterruptEgUART.c,5 :: 		delay_ms(100);
	MOVLW       3
	MOVWF       R11, 0
	MOVLW       138
	MOVWF       R12, 0
	MOVLW       85
	MOVWF       R13, 0
L_main0:
	DECFSZ      R13, 1, 1
	BRA         L_main0
	DECFSZ      R12, 1, 1
	BRA         L_main0
	DECFSZ      R11, 1, 1
	BRA         L_main0
	NOP
	NOP
;InterruptEgUART.c,7 :: 		UART1_Write_Text("welcome to this course");
	MOVLW       ?lstr1_InterruptEgUART+0
	MOVWF       FARG_UART1_Write_Text_uart_text+0 
	MOVLW       hi_addr(?lstr1_InterruptEgUART+0)
	MOVWF       FARG_UART1_Write_Text_uart_text+1 
	CALL        _UART1_Write_Text+0, 0
;InterruptEgUART.c,8 :: 		delay_ms(300);
	MOVLW       8
	MOVWF       R11, 0
	MOVLW       157
	MOVWF       R12, 0
	MOVLW       5
	MOVWF       R13, 0
L_main1:
	DECFSZ      R13, 1, 1
	BRA         L_main1
	DECFSZ      R12, 1, 1
	BRA         L_main1
	DECFSZ      R11, 1, 1
	BRA         L_main1
	NOP
	NOP
;InterruptEgUART.c,9 :: 		UART1_Write_Text(" Press 1 to Turn on LED on RB7");
	MOVLW       ?lstr2_InterruptEgUART+0
	MOVWF       FARG_UART1_Write_Text_uart_text+0 
	MOVLW       hi_addr(?lstr2_InterruptEgUART+0)
	MOVWF       FARG_UART1_Write_Text_uart_text+1 
	CALL        _UART1_Write_Text+0, 0
;InterruptEgUART.c,11 :: 		GIE_bit=1;
	BSF         GIE_bit+0, BitPos(GIE_bit+0) 
;InterruptEgUART.c,12 :: 		PEIE_bit=1;
	BSF         PEIE_bit+0, BitPos(PEIE_bit+0) 
;InterruptEgUART.c,13 :: 		RC1IE_bit=1;
	BSF         RC1IE_bit+0, BitPos(RC1IE_bit+0) 
;InterruptEgUART.c,14 :: 		RC1IF_bit=1;
	BSF         RC1IF_bit+0, BitPos(RC1IF_bit+0) 
;InterruptEgUART.c,15 :: 		while(1)
L_main2:
;InterruptEgUART.c,17 :: 		LATB.F7=0;
	BCF         LATB+0, 7 
;InterruptEgUART.c,18 :: 		}
	GOTO        L_main2
;InterruptEgUART.c,19 :: 		}
L_end_main:
	GOTO        $+0
; end of _main

_interrupt:

;InterruptEgUART.c,20 :: 		void interrupt()
;InterruptEgUART.c,22 :: 		if( RC1IF_bit==1)
	BTFSS       RC1IF_bit+0, BitPos(RC1IF_bit+0) 
	GOTO        L_interrupt4
;InterruptEgUART.c,24 :: 		receiveIncomingData =UART1_Read();
	CALL        _UART1_Read+0, 0
	MOVF        R0, 0 
	MOVWF       _receiveIncomingData+0 
;InterruptEgUART.c,25 :: 		if(receiveIncomingData== '1')
	MOVF        R0, 0 
	XORLW       49
	BTFSS       STATUS+0, 2 
	GOTO        L_interrupt5
;InterruptEgUART.c,27 :: 		LATB.F7=1;
	BSF         LATB+0, 7 
;InterruptEgUART.c,28 :: 		delay_ms(1000);
	MOVLW       26
	MOVWF       R11, 0
	MOVLW       94
	MOVWF       R12, 0
	MOVLW       110
	MOVWF       R13, 0
L_interrupt6:
	DECFSZ      R13, 1, 1
	BRA         L_interrupt6
	DECFSZ      R12, 1, 1
	BRA         L_interrupt6
	DECFSZ      R11, 1, 1
	BRA         L_interrupt6
	NOP
;InterruptEgUART.c,29 :: 		}
	GOTO        L_interrupt7
L_interrupt5:
;InterruptEgUART.c,32 :: 		LATB.F7=0;
	BCF         LATB+0, 7 
;InterruptEgUART.c,34 :: 		}
L_interrupt7:
;InterruptEgUART.c,36 :: 		}
L_interrupt4:
;InterruptEgUART.c,37 :: 		}
L_end_interrupt:
L__interrupt10:
	RETFIE      1
; end of _interrupt
